target datalayout = "e-m:e-p270:32:32-p271:32:32-p272:64:64-i64:64-i128:128-f80:128-n8:16:32:64-S128"
target triple = "x86_64-pc-linux-gnu"

%struct.mz_zip_archive_tag = type { i64, i64, i32, i32, i32, ptr, ptr, ptr, ptr, ptr, ptr, ptr, ptr }
%struct.mz_zip_internal_state_tag = type { %struct.mz_zip_array, %struct.mz_zip_array, %struct.mz_zip_array, ptr, ptr, i64, i64 }
%struct.mz_zip_array = type { ptr, i64, i64, i32 }
%class.QMessageLogger = type { %class.QMessageLogContext }
%class.QMessageLogContext = type { i32, i32, ptr, ptr, ptr }

@.str.74 = private unnamed_addr constant [8 x i8] c"default\00", align 1
@.str.173 = private unnamed_addr constant [23 x i8] c"Trying to add %s to %s\00", align 1
@.str.174 = private unnamed_addr constant [28 x i8] c"Failed creating zip archive\00", align 1
@.str.175 = private unnamed_addr constant [13 x i8] c"test comment\00", align 1
@.str.176 = private unnamed_addr constant [23 x i8] c"failed adding %s to %s\00", align 1
@.str.177 = private unnamed_addr constant [16 x i8] c"Compressed %llu\00", align 1

; Function Attrs: mustprogress nounwind uwtable
define linkonce_odr void @_ZN18QMessageLogContextC2EPKciS1_S1_(ptr noundef nonnull align 8 dereferenceable(32) %0, ptr noundef %1, i32 noundef %2, ptr noundef %3, ptr noundef %4) unnamed_addr #4 comdat align 2 {
  %6 = alloca ptr, align 8
  %7 = alloca ptr, align 8
  %8 = alloca i32, align 4
  %9 = alloca ptr, align 8
  %10 = alloca ptr, align 8
  store ptr %0, ptr %6, align 8
  store ptr %1, ptr %7, align 8
  store i32 %2, ptr %8, align 4
  store ptr %3, ptr %9, align 8
  store ptr %4, ptr %10, align 8
  %11 = load ptr, ptr %6, align 8
  %12 = getelementptr inbounds %class.QMessageLogContext, ptr %11, i32 0, i32 0
  store i32 2, ptr %12, align 8
  %13 = getelementptr inbounds %class.QMessageLogContext, ptr %11, i32 0, i32 1
  %14 = load i32, ptr %8, align 4
  store i32 %14, ptr %13, align 4
  %15 = getelementptr inbounds %class.QMessageLogContext, ptr %11, i32 0, i32 2
  %16 = load ptr, ptr %7, align 8
  store ptr %16, ptr %15, align 8
  %17 = getelementptr inbounds %class.QMessageLogContext, ptr %11, i32 0, i32 3
  %18 = load ptr, ptr %9, align 8
  store ptr %18, ptr %17, align 8
  %19 = getelementptr inbounds %class.QMessageLogContext, ptr %11, i32 0, i32 4
  %20 = load ptr, ptr %10, align 8
  store ptr %20, ptr %19, align 8
  ret void
}

; Function Attrs: mustprogress uwtable
define i32 @mz_zip_writer_end(ptr noundef %0) #5 {
  %2 = alloca ptr, align 8
  %3 = alloca ptr, align 8
  %4 = alloca ptr, align 8
  %5 = alloca ptr, align 8
  %6 = alloca ptr, align 8
  %7 = alloca ptr, align 8
  %8 = alloca i32, align 4
  %9 = alloca ptr, align 8
  %10 = alloca ptr, align 8
  %11 = alloca i32, align 4
  store ptr %0, ptr %9, align 8
  store i32 1, ptr %11, align 4
  %12 = load ptr, ptr %9, align 8
  %13 = icmp ne ptr %12, null
  br i1 %13, label %14, label %39

14:                                               ; preds = %1
  %15 = load ptr, ptr %9, align 8
  %16 = getelementptr inbounds %struct.mz_zip_archive_tag, ptr %15, i32 0, i32 12
  %17 = load ptr, ptr %16, align 8
  %18 = icmp ne ptr %17, null
  br i1 %18, label %19, label %39

19:                                               ; preds = %14
  %20 = load ptr, ptr %9, align 8
  %21 = getelementptr inbounds %struct.mz_zip_archive_tag, ptr %20, i32 0, i32 5
  %22 = load ptr, ptr %21, align 8
  %23 = icmp ne ptr %22, null
  br i1 %23, label %24, label %39

24:                                               ; preds = %19
  %25 = load ptr, ptr %9, align 8
  %26 = getelementptr inbounds %struct.mz_zip_archive_tag, ptr %25, i32 0, i32 6
  %27 = load ptr, ptr %26, align 8
  %28 = icmp ne ptr %27, null
  br i1 %28, label %29, label %39

29:                                               ; preds = %24
  %30 = load ptr, ptr %9, align 8
  %31 = getelementptr inbounds %struct.mz_zip_archive_tag, ptr %30, i32 0, i32 3
  %32 = load i32, ptr %31, align 4
  %33 = icmp ne i32 %32, 2
  br i1 %33, label %34, label %40

34:                                               ; preds = %29
  %35 = load ptr, ptr %9, align 8
  %36 = getelementptr inbounds %struct.mz_zip_archive_tag, ptr %35, i32 0, i32 3
  %37 = load i32, ptr %36, align 4
  %38 = icmp ne i32 %37, 3
  br i1 %38, label %39, label %40

39:                                               ; preds = %34, %24, %19, %14, %1
  store i32 0, ptr %8, align 4
  br label %126

40:                                               ; preds = %34, %29
  %41 = load ptr, ptr %9, align 8
  %42 = getelementptr inbounds %struct.mz_zip_archive_tag, ptr %41, i32 0, i32 12
  %43 = load ptr, ptr %42, align 8
  store ptr %43, ptr %10, align 8
  %44 = load ptr, ptr %9, align 8
  %45 = getelementptr inbounds %struct.mz_zip_archive_tag, ptr %44, i32 0, i32 12
  store ptr null, ptr %45, align 8
  %46 = load ptr, ptr %9, align 8
  %47 = load ptr, ptr %10, align 8
  %48 = getelementptr inbounds %struct.mz_zip_internal_state_tag, ptr %47, i32 0, i32 0
  store ptr %46, ptr %2, align 8
  store ptr %48, ptr %3, align 8
  %49 = load ptr, ptr %2, align 8
  %50 = getelementptr inbounds %struct.mz_zip_archive_tag, ptr %49, i32 0, i32 6
  %51 = load ptr, ptr %50, align 8
  %52 = load ptr, ptr %2, align 8
  %53 = getelementptr inbounds %struct.mz_zip_archive_tag, ptr %52, i32 0, i32 8
  %54 = load ptr, ptr %53, align 8
  %55 = load ptr, ptr %3, align 8
  %56 = load ptr, ptr %55, align 8
  call void %51(ptr noundef %54, ptr noundef %56)
  %57 = load ptr, ptr %3, align 8
  call void @llvm.memset.p0.i64(ptr align 8 %57, i8 0, i64 32, i1 false)
  %58 = load ptr, ptr %9, align 8
  %59 = load ptr, ptr %10, align 8
  %60 = getelementptr inbounds %struct.mz_zip_internal_state_tag, ptr %59, i32 0, i32 1
  store ptr %58, ptr %4, align 8
  store ptr %60, ptr %5, align 8
  %61 = load ptr, ptr %4, align 8
  %62 = getelementptr inbounds %struct.mz_zip_archive_tag, ptr %61, i32 0, i32 6
  %63 = load ptr, ptr %62, align 8
  %64 = load ptr, ptr %4, align 8
  %65 = getelementptr inbounds %struct.mz_zip_archive_tag, ptr %64, i32 0, i32 8
  %66 = load ptr, ptr %65, align 8
  %67 = load ptr, ptr %5, align 8
  %68 = load ptr, ptr %67, align 8
  call void %63(ptr noundef %66, ptr noundef %68)
  %69 = load ptr, ptr %5, align 8
  call void @llvm.memset.p0.i64(ptr align 8 %69, i8 0, i64 32, i1 false)
  %70 = load ptr, ptr %9, align 8
  %71 = load ptr, ptr %10, align 8
  %72 = getelementptr inbounds %struct.mz_zip_internal_state_tag, ptr %71, i32 0, i32 2
  store ptr %70, ptr %6, align 8
  store ptr %72, ptr %7, align 8
  %73 = load ptr, ptr %6, align 8
  %74 = getelementptr inbounds %struct.mz_zip_archive_tag, ptr %73, i32 0, i32 6
  %75 = load ptr, ptr %74, align 8
  %76 = load ptr, ptr %6, align 8
  %77 = getelementptr inbounds %struct.mz_zip_archive_tag, ptr %76, i32 0, i32 8
  %78 = load ptr, ptr %77, align 8
  %79 = load ptr, ptr %7, align 8
  %80 = load ptr, ptr %79, align 8
  call void %75(ptr noundef %78, ptr noundef %80)
  %81 = load ptr, ptr %7, align 8
  call void @llvm.memset.p0.i64(ptr align 8 %81, i8 0, i64 32, i1 false)
  %82 = load ptr, ptr %10, align 8
  %83 = getelementptr inbounds %struct.mz_zip_internal_state_tag, ptr %82, i32 0, i32 3
  %84 = load ptr, ptr %83, align 8
  %85 = icmp ne ptr %84, null
  br i1 %85, label %86, label %93

86:                                               ; preds = %40
  %87 = load ptr, ptr %10, align 8
  %88 = getelementptr inbounds %struct.mz_zip_internal_state_tag, ptr %87, i32 0, i32 3
  %89 = load ptr, ptr %88, align 8
  %90 = call i32 @fclose(ptr noundef %89)
  %91 = load ptr, ptr %10, align 8
  %92 = getelementptr inbounds %struct.mz_zip_internal_state_tag, ptr %91, i32 0, i32 3
  store ptr null, ptr %92, align 8
  br label %93

93:                                               ; preds = %86, %40
  %94 = load ptr, ptr %9, align 8
  %95 = getelementptr inbounds %struct.mz_zip_archive_tag, ptr %94, i32 0, i32 10
  %96 = load ptr, ptr %95, align 8
  %97 = icmp eq ptr %96, @_ZL22mz_zip_heap_write_funcPvyPKvm
  br i1 %97, label %98, label %115

98:                                               ; preds = %93
  %99 = load ptr, ptr %10, align 8
  %100 = getelementptr inbounds %struct.mz_zip_internal_state_tag, ptr %99, i32 0, i32 4
  %101 = load ptr, ptr %100, align 8
  %102 = icmp ne ptr %101, null
  br i1 %102, label %103, label %115

103:                                              ; preds = %98
  %104 = load ptr, ptr %9, align 8
  %105 = getelementptr inbounds %struct.mz_zip_archive_tag, ptr %104, i32 0, i32 6
  %106 = load ptr, ptr %105, align 8
  %107 = load ptr, ptr %9, align 8
  %108 = getelementptr inbounds %struct.mz_zip_archive_tag, ptr %107, i32 0, i32 8
  %109 = load ptr, ptr %108, align 8
  %110 = load ptr, ptr %10, align 8
  %111 = getelementptr inbounds %struct.mz_zip_internal_state_tag, ptr %110, i32 0, i32 4
  %112 = load ptr, ptr %111, align 8
  call void %106(ptr noundef %109, ptr noundef %112)
  %113 = load ptr, ptr %10, align 8
  %114 = getelementptr inbounds %struct.mz_zip_internal_state_tag, ptr %113, i32 0, i32 4
  store ptr null, ptr %114, align 8
  br label %115

115:                                              ; preds = %103, %98, %93
  %116 = load ptr, ptr %9, align 8
  %117 = getelementptr inbounds %struct.mz_zip_archive_tag, ptr %116, i32 0, i32 6
  %118 = load ptr, ptr %117, align 8
  %119 = load ptr, ptr %9, align 8
  %120 = getelementptr inbounds %struct.mz_zip_archive_tag, ptr %119, i32 0, i32 8
  %121 = load ptr, ptr %120, align 8
  %122 = load ptr, ptr %10, align 8
  call void %118(ptr noundef %121, ptr noundef %122)
  %123 = load ptr, ptr %9, align 8
  %124 = getelementptr inbounds %struct.mz_zip_archive_tag, ptr %123, i32 0, i32 3
  store i32 0, ptr %124, align 4
  %125 = load i32, ptr %11, align 4
  store i32 %125, ptr %8, align 4
  br label %126

126:                                              ; preds = %115, %39
  %127 = load i32, ptr %8, align 4
  ret i32 %127
}

; Function Attrs: mustprogress nounwind uwtable
define linkonce_odr void @_ZN14QMessageLoggerC2EPKciS1_(ptr noundef nonnull align 8 dereferenceable(32) %0, ptr noundef %1, i32 noundef %2, ptr noundef %3) unnamed_addr #4 comdat align 2 {
  %5 = alloca ptr, align 8
  %6 = alloca ptr, align 8
  %7 = alloca i32, align 4
  %8 = alloca ptr, align 8
  store ptr %0, ptr %5, align 8
  store ptr %1, ptr %6, align 8
  store i32 %2, ptr %7, align 4
  store ptr %3, ptr %8, align 8
  %9 = load ptr, ptr %5, align 8
  %10 = getelementptr inbounds %class.QMessageLogger, ptr %9, i32 0, i32 0
  %11 = load ptr, ptr %6, align 8
  %12 = load i32, ptr %7, align 4
  %13 = load ptr, ptr %8, align 8
  call void @_ZN18QMessageLogContextC2EPKciS1_S1_(ptr noundef nonnull align 8 dereferenceable(32) %10, ptr noundef %11, i32 noundef %12, ptr noundef %13, ptr noundef @.str.74) #3
  ret void
}

; Function Attrs: mustprogress uwtable
define noundef i32 @_ZN21FilterSketchFabPlugin11saveMeshZipERKNSt7__cxx1112basic_stringIcSt11char_traitsIcESaIcEEES7_S7_(ptr noundef nonnull align 8 dereferenceable(104) %0, ptr noundef nonnull align 8 dereferenceable(32) %1, ptr noundef nonnull align 8 dereferenceable(32) %2, ptr noundef nonnull align 8 dereferenceable(32) %3) #5 align 2 {
  %5 = alloca i32, align 4
  %6 = alloca ptr, align 8
  %7 = alloca ptr, align 8
  %8 = alloca ptr, align 8
  %9 = alloca ptr, align 8
  %10 = alloca %class.QMessageLogger, align 8
  %11 = alloca %struct.mz_zip_archive_tag, align 8
  %12 = alloca %class.QMessageLogger, align 8
  %13 = alloca ptr, align 8
  %14 = alloca %class.QMessageLogger, align 8
  %15 = alloca %class.QMessageLogger, align 8
  store ptr %0, ptr %6, align 8
  store ptr %1, ptr %7, align 8
  store ptr %2, ptr %8, align 8
  store ptr %3, ptr %9, align 8
  call void @_ZN14QMessageLoggerC2EPKciS1_(ptr noundef nonnull align 8 dereferenceable(32) %10, ptr noundef null, i32 noundef 0, ptr noundef null)
  %16 = load ptr, ptr %7, align 8
  %17 = call noundef ptr @_ZNKSt7__cxx1112basic_stringIcSt11char_traitsIcESaIcEE5c_strEv(ptr noundef nonnull align 8 dereferenceable(32) %16) #3
  %18 = load ptr, ptr %9, align 8
  %19 = call noundef ptr @_ZNKSt7__cxx1112basic_stringIcSt11char_traitsIcESaIcEE5c_strEv(ptr noundef nonnull align 8 dereferenceable(32) %18) #3
  call void (ptr, ptr, ...) @_ZNK14QMessageLogger5debugEPKcz(ptr noundef nonnull align 8 dereferenceable(32) %10, ptr noundef @.str.173, ptr noundef %17, ptr noundef %19)
  call void @llvm.memset.p0.i64(ptr align 8 %11, i8 0, i64 96, i1 false)
  %20 = load ptr, ptr %9, align 8
  %21 = call noundef ptr @_ZNKSt7__cxx1112basic_stringIcSt11char_traitsIcESaIcEE5c_strEv(ptr noundef nonnull align 8 dereferenceable(32) %20) #3
  %22 = call i32 @mz_zip_writer_init_file(ptr noundef %11, ptr noundef %21, i64 noundef 65537)
  %23 = icmp ne i32 %22, 0
  br i1 %23, label %26, label %24

24:                                               ; preds = %4
  call void @_ZN14QMessageLoggerC2EPKciS1_(ptr noundef nonnull align 8 dereferenceable(32) %12, ptr noundef null, i32 noundef 0, ptr noundef null)
  call void (ptr, ptr, ...) @_ZNK14QMessageLogger5debugEPKcz(ptr noundef nonnull align 8 dereferenceable(32) %12, ptr noundef @.str.174)
  %25 = call i32 @mz_zip_writer_end(ptr noundef %11)
  store i32 0, ptr %5, align 4
  br label %47

26:                                               ; preds = %4
  store ptr @.str.175, ptr %13, align 8
  %27 = load ptr, ptr %8, align 8
  %28 = call noundef ptr @_ZNKSt7__cxx1112basic_stringIcSt11char_traitsIcESaIcEE5c_strEv(ptr noundef nonnull align 8 dereferenceable(32) %27) #3
  %29 = load ptr, ptr %7, align 8
  %30 = call noundef ptr @_ZNKSt7__cxx1112basic_stringIcSt11char_traitsIcESaIcEE5c_strEv(ptr noundef nonnull align 8 dereferenceable(32) %29) #3
  %31 = load ptr, ptr %13, align 8
  %32 = load ptr, ptr %13, align 8
  %33 = call i64 @strlen(ptr noundef %32) #23
  %34 = trunc i64 %33 to i16
  %35 = call i32 @mz_zip_writer_add_file(ptr noundef %11, ptr noundef %28, ptr noundef %30, ptr noundef %31, i16 noundef zeroext %34, i32 noundef 10)
  %36 = icmp ne i32 %35, 0
  br i1 %36, label %43, label %37

37:                                               ; preds = %26
  call void @_ZN14QMessageLoggerC2EPKciS1_(ptr noundef nonnull align 8 dereferenceable(32) %14, ptr noundef null, i32 noundef 0, ptr noundef null)
  %38 = load ptr, ptr %7, align 8
  %39 = call noundef ptr @_ZNKSt7__cxx1112basic_stringIcSt11char_traitsIcESaIcEE5c_strEv(ptr noundef nonnull align 8 dereferenceable(32) %38) #3
  %40 = load ptr, ptr %9, align 8
  %41 = call noundef ptr @_ZNKSt7__cxx1112basic_stringIcSt11char_traitsIcESaIcEE5c_strEv(ptr noundef nonnull align 8 dereferenceable(32) %40) #3
  call void (ptr, ptr, ...) @_ZNK14QMessageLogger5debugEPKcz(ptr noundef nonnull align 8 dereferenceable(32) %14, ptr noundef @.str.176, ptr noundef %39, ptr noundef %41)
  %42 = call i32 @mz_zip_writer_end(ptr noundef %11)
  store i32 0, ptr %5, align 4
  br label %47

43:                                               ; preds = %26
  %44 = call i32 @mz_zip_writer_finalize_archive(ptr noundef %11)
  call void @_ZN14QMessageLoggerC2EPKciS1_(ptr noundef nonnull align 8 dereferenceable(32) %15, ptr noundef null, i32 noundef 0, ptr noundef null)
  %45 = getelementptr inbounds %struct.mz_zip_archive_tag, ptr %11, i32 0, i32 0
  %46 = load i64, ptr %45, align 8
  call void (ptr, ptr, ...) @_ZNK14QMessageLogger5debugEPKcz(ptr noundef nonnull align 8 dereferenceable(32) %15, ptr noundef @.str.177, i64 noundef %46)
  store i32 1, ptr %5, align 4
  br label %47

47:                                               ; preds = %43, %37, %24
  %48 = load i32, ptr %5, align 4
  ret i32 %48
}