; Function Attrs: mustprogress uwtable
define noundef i32 @_ZN21FilterSketchFabPlugin11saveMeshZipERKNSt7__cxx1112basic_stringIcSt11char_traitsIcESaIcEEES7_S7_(ptr nocapture nonnull readnone align 8 %0, ptr noundef nonnull align 8 dereferenceable(32) %1, ptr noundef nonnull align 8 dereferenceable(32) %2, ptr noundef nonnull align 8 dereferenceable(32) %3) local_unnamed_addr #9 align 2 {
  %5 = alloca %class.QMessageLogger, align 8
  %6 = alloca %struct.mz_zip_archive_tag, align 8
  %7 = alloca %class.QMessageLogger, align 8
  %8 = alloca %class.QMessageLogger, align 8
  %9 = alloca %class.QMessageLogger, align 8
  store i32 2, ptr %5, align 8
  %10 = getelementptr inbounds i8, ptr %5, i64 4
  %11 = getelementptr inbounds i8, ptr %5, i64 24
  call void @llvm.memset.p0.i64(ptr noundef nonnull align 4 dereferenceable(20) %10, i8 0, i64 20, i1 false)
  store ptr @.str.74, ptr %11, align 8
  %12 = tail call noundef ptr @_ZNKSt7__cxx1112basic_stringIcSt11char_traitsIcESaIcEE5c_strEv(ptr noundef nonnull align 8 dereferenceable(32) %1) #41
  %13 = tail call noundef ptr @_ZNKSt7__cxx1112basic_stringIcSt11char_traitsIcESaIcEE5c_strEv(ptr noundef nonnull align 8 dereferenceable(32) %3) #41
  call void (ptr, ptr, ...) @_ZNK14QMessageLogger5debugEPKcz(ptr noundef nonnull align 8 dereferenceable(32) %5, ptr noundef nonnull @.str.173, ptr noundef %12, ptr noundef %13)
  call void @llvm.memset.p0.i64(ptr noundef nonnull align 8 dereferenceable(96) %6, i8 0, i64 96, i1 false)
  %14 = call noundef ptr @_ZNKSt7__cxx1112basic_stringIcSt11char_traitsIcESaIcEE5c_strEv(ptr noundef nonnull align 8 dereferenceable(32) %3) #41
  %15 = call i32 @mz_zip_writer_init_file(ptr noundef nonnull %6, ptr noundef %14, i64 noundef 65537), !range !16
  %.not = icmp eq i32 %15, 0
  br i1 %.not, label %16, label %59

16:                                               ; preds = %4
  store i32 2, ptr %7, align 8
  %17 = getelementptr inbounds i8, ptr %7, i64 4
  %18 = getelementptr inbounds i8, ptr %7, i64 24
  call void @llvm.memset.p0.i64(ptr noundef nonnull align 4 dereferenceable(20) %17, i8 0, i64 20, i1 false)
  store ptr @.str.74, ptr %18, align 8
  call void (ptr, ptr, ...) @_ZNK14QMessageLogger5debugEPKcz(ptr noundef nonnull align 8 dereferenceable(32) %7, ptr noundef nonnull @.str.174)
  %19 = getelementptr inbounds i8, ptr %6, i64 88
  %20 = load ptr, ptr %19, align 8
  %.not44.i = icmp eq ptr %20, null
  %21 = getelementptr inbounds i8, ptr %6, i64 32
  %22 = load ptr, ptr %21, align 8
  %.not45.i = icmp eq ptr %22, null
  %or.cond = select i1 %.not44.i, i1 true, i1 %.not45.i
  br i1 %or.cond, label %mz_zip_writer_end.exit, label %23

23:                                               ; preds = %16
  %24 = getelementptr inbounds i8, ptr %6, i64 40
  %25 = load ptr, ptr %24, align 8
  %.not46.i = icmp eq ptr %25, null
  br i1 %.not46.i, label %mz_zip_writer_end.exit, label %26

26:                                               ; preds = %23
  %27 = getelementptr inbounds i8, ptr %6, i64 20
  %28 = load i32, ptr %27, align 4
  %29 = and i32 %28, -2
  %switch.i = icmp eq i32 %29, 2
  br i1 %switch.i, label %30, label %mz_zip_writer_end.exit

30:                                               ; preds = %26
  store ptr null, ptr %19, align 8
  %31 = getelementptr inbounds i8, ptr %6, i64 56
  %32 = load ptr, ptr %31, align 8
  %33 = load ptr, ptr %20, align 8
  call void %25(ptr noundef %32, ptr noundef %33)
  call void @llvm.memset.p0.i64(ptr noundef nonnull align 8 dereferenceable(32) %20, i8 0, i64 32, i1 false)
  %34 = getelementptr inbounds i8, ptr %20, i64 32
  %35 = load ptr, ptr %24, align 8
  %36 = load ptr, ptr %31, align 8
  %37 = load ptr, ptr %34, align 8
  call void %35(ptr noundef %36, ptr noundef %37)
  call void @llvm.memset.p0.i64(ptr noundef nonnull align 8 dereferenceable(32) %34, i8 0, i64 32, i1 false)
  %38 = getelementptr inbounds i8, ptr %20, i64 64
  %39 = load ptr, ptr %24, align 8
  %40 = load ptr, ptr %31, align 8
  %41 = load ptr, ptr %38, align 8
  call void %39(ptr noundef %40, ptr noundef %41)
  call void @llvm.memset.p0.i64(ptr noundef nonnull align 8 dereferenceable(32) %38, i8 0, i64 32, i1 false)
  %42 = getelementptr inbounds i8, ptr %20, i64 96
  %43 = load ptr, ptr %42, align 8
  %.not49.i = icmp eq ptr %43, null
  br i1 %.not49.i, label %46, label %44

44:                                               ; preds = %30
  %45 = call i32 @fclose(ptr noundef nonnull %43)
  store ptr null, ptr %42, align 8
  br label %46

46:                                               ; preds = %44, %30
  %47 = getelementptr inbounds i8, ptr %6, i64 72
  %48 = load ptr, ptr %47, align 8
  %49 = icmp eq ptr %48, @_ZL22mz_zip_heap_write_funcPvyPKvm
  br i1 %49, label %50, label %56

50:                                               ; preds = %46
  %51 = getelementptr inbounds i8, ptr %20, i64 104
  %52 = load ptr, ptr %51, align 8
  %.not50.i = icmp eq ptr %52, null
  br i1 %.not50.i, label %56, label %53

53:                                               ; preds = %50
  %54 = load ptr, ptr %24, align 8
  %55 = load ptr, ptr %31, align 8
  call void %54(ptr noundef %55, ptr noundef nonnull %52)
  store ptr null, ptr %51, align 8
  br label %56

56:                                               ; preds = %53, %50, %46
  %57 = load ptr, ptr %24, align 8
  %58 = load ptr, ptr %31, align 8
  call void %57(ptr noundef %58, ptr noundef nonnull %20)
  br label %mz_zip_writer_end.exit

59:                                               ; preds = %4
  %60 = call noundef ptr @_ZNKSt7__cxx1112basic_stringIcSt11char_traitsIcESaIcEE5c_strEv(ptr noundef nonnull align 8 dereferenceable(32) %2) #41
  %61 = call noundef ptr @_ZNKSt7__cxx1112basic_stringIcSt11char_traitsIcESaIcEE5c_strEv(ptr noundef nonnull align 8 dereferenceable(32) %1) #41
  %62 = call i32 @mz_zip_writer_add_file(ptr noundef nonnull %6, ptr noundef %60, ptr noundef %61, ptr noundef nonnull @.str.175, i16 noundef zeroext 12, i32 noundef 10), !range !16
  %.not9 = icmp eq i32 %62, 0
  br i1 %.not9, label %63, label %108

63:                                               ; preds = %59
  store i32 2, ptr %8, align 8
  %64 = getelementptr inbounds i8, ptr %8, i64 4
  %65 = getelementptr inbounds i8, ptr %8, i64 24
  call void @llvm.memset.p0.i64(ptr noundef nonnull align 4 dereferenceable(20) %64, i8 0, i64 20, i1 false)
  store ptr @.str.74, ptr %65, align 8
  %66 = call noundef ptr @_ZNKSt7__cxx1112basic_stringIcSt11char_traitsIcESaIcEE5c_strEv(ptr noundef nonnull align 8 dereferenceable(32) %1) #41
  %67 = call noundef ptr @_ZNKSt7__cxx1112basic_stringIcSt11char_traitsIcESaIcEE5c_strEv(ptr noundef nonnull align 8 dereferenceable(32) %3) #41
  call void (ptr, ptr, ...) @_ZNK14QMessageLogger5debugEPKcz(ptr noundef nonnull align 8 dereferenceable(32) %8, ptr noundef nonnull @.str.176, ptr noundef %66, ptr noundef %67)
  %68 = getelementptr inbounds i8, ptr %6, i64 88
  %69 = load ptr, ptr %68, align 8
  %.not44.i10 = icmp eq ptr %69, null
  %70 = getelementptr inbounds i8, ptr %6, i64 32
  %71 = load ptr, ptr %70, align 8
  %.not45.i11 = icmp eq ptr %71, null
  %or.cond20 = select i1 %.not44.i10, i1 true, i1 %.not45.i11
  br i1 %or.cond20, label %mz_zip_writer_end.exit, label %72

72:                                               ; preds = %63
  %73 = getelementptr inbounds i8, ptr %6, i64 40
  %74 = load ptr, ptr %73, align 8
  %.not46.i12 = icmp eq ptr %74, null
  br i1 %.not46.i12, label %mz_zip_writer_end.exit, label %75

75:                                               ; preds = %72
  %76 = getelementptr inbounds i8, ptr %6, i64 20
  %77 = load i32, ptr %76, align 4
  %78 = and i32 %77, -2
  %switch.i13 = icmp eq i32 %78, 2
  br i1 %switch.i13, label %79, label %mz_zip_writer_end.exit

79:                                               ; preds = %75
  store ptr null, ptr %68, align 8
  %80 = getelementptr inbounds i8, ptr %6, i64 56
  %81 = load ptr, ptr %80, align 8
  %82 = load ptr, ptr %69, align 8
  call void %74(ptr noundef %81, ptr noundef %82)
  call void @llvm.memset.p0.i64(ptr noundef nonnull align 8 dereferenceable(32) %69, i8 0, i64 32, i1 false)
  %83 = getelementptr inbounds i8, ptr %69, i64 32
  %84 = load ptr, ptr %73, align 8
  %85 = load ptr, ptr %80, align 8
  %86 = load ptr, ptr %83, align 8
  call void %84(ptr noundef %85, ptr noundef %86)
  call void @llvm.memset.p0.i64(ptr noundef nonnull align 8 dereferenceable(32) %83, i8 0, i64 32, i1 false)
  %87 = getelementptr inbounds i8, ptr %69, i64 64
  %88 = load ptr, ptr %73, align 8
  %89 = load ptr, ptr %80, align 8
  %90 = load ptr, ptr %87, align 8
  call void %88(ptr noundef %89, ptr noundef %90)
  call void @llvm.memset.p0.i64(ptr noundef nonnull align 8 dereferenceable(32) %87, i8 0, i64 32, i1 false)
  %91 = getelementptr inbounds i8, ptr %69, i64 96
  %92 = load ptr, ptr %91, align 8
  %.not49.i15 = icmp eq ptr %92, null
  br i1 %.not49.i15, label %95, label %93

93:                                               ; preds = %79
  %94 = call i32 @fclose(ptr noundef nonnull %92)
  store ptr null, ptr %91, align 8
  br label %95

95:                                               ; preds = %93, %79
  %96 = getelementptr inbounds i8, ptr %6, i64 72
  %97 = load ptr, ptr %96, align 8
  %98 = icmp eq ptr %97, @_ZL22mz_zip_heap_write_funcPvyPKvm
  br i1 %98, label %99, label %105

99:                                               ; preds = %95
  %100 = getelementptr inbounds i8, ptr %69, i64 104
  %101 = load ptr, ptr %100, align 8
  %.not50.i16 = icmp eq ptr %101, null
  br i1 %.not50.i16, label %105, label %102

102:                                              ; preds = %99
  %103 = load ptr, ptr %73, align 8
  %104 = load ptr, ptr %80, align 8
  call void %103(ptr noundef %104, ptr noundef nonnull %101)
  store ptr null, ptr %100, align 8
  br label %105

105:                                              ; preds = %102, %99, %95
  %106 = load ptr, ptr %73, align 8
  %107 = load ptr, ptr %80, align 8
  call void %106(ptr noundef %107, ptr noundef nonnull %69)
  br label %mz_zip_writer_end.exit

108:                                              ; preds = %59
  %109 = call i32 @mz_zip_writer_finalize_archive(ptr noundef nonnull %6), !range !16
  store i32 2, ptr %9, align 8
  %110 = getelementptr inbounds i8, ptr %9, i64 4
  %111 = getelementptr inbounds i8, ptr %9, i64 24
  call void @llvm.memset.p0.i64(ptr noundef nonnull align 4 dereferenceable(20) %110, i8 0, i64 20, i1 false)
  store ptr @.str.74, ptr %111, align 8
  %112 = load i64, ptr %6, align 8
  call void (ptr, ptr, ...) @_ZNK14QMessageLogger5debugEPKcz(ptr noundef nonnull align 8 dereferenceable(32) %9, ptr noundef nonnull @.str.177, i64 noundef %112)
  br label %mz_zip_writer_end.exit

mz_zip_writer_end.exit:                           ; preds = %105, %75, %72, %63, %56, %26, %23, %16, %108
  %.0 = phi i32 [ 1, %108 ], [ 0, %16 ], [ 0, %23 ], [ 0, %26 ], [ 0, %56 ], [ 0, %63 ], [ 0, %72 ], [ 0, %75 ], [ 0, %105 ]
  ret i32 %.0
}